; Function Attrs: nounwind uwtable
define range(i64 -1, -9223372036854775808) i64 @H5EScreate() local_unnamed_addr #0 {
  %1 = alloca %struct.H5CX_node_t, align 8
  call void @llvm.lifetime.start.p0(i64 480, ptr nonnull %1) #4
  call void @llvm.memset.p0.i64(ptr noundef nonnull align 8 dereferenceable(480) %1, i8 0, i64 480, i1 false)
  %2 = load i8, ptr @H5_libinit_g, align 1, !tbaa !3, !range !7, !noundef !8
  %3 = trunc nuw i8 %2 to i1
  %4 = load i8, ptr @H5_libterm_g, align 1, !range !7
  %5 = trunc nuw i8 %4 to i1
  %6 = select i1 %3, i1 true, i1 %5
  br i1 %6, label %14, label %7, !prof !9

7:                                                ; preds = %0
  %8 = tail call i32 @H5_init_library() #4
  %9 = icmp slt i32 %8, 0
  br i1 %9, label %10, label %._crit_edge, !prof !10

._crit_edge:                                      ; preds = %7
  %.pre = load i8, ptr @H5_libterm_g, align 1, !range !7
  br label %14

10:                                               ; preds = %7
  %11 = load i64, ptr @H5E_FUNC_g, align 8, !tbaa !11
  %12 = load i64, ptr @H5E_CANTINIT_g, align 8, !tbaa !11
  %13 = tail call i32 (ptr, ptr, i32, i64, i64, ptr, ...) @H5E_printf_stack(ptr noundef nonnull @.str, ptr noundef nonnull @__func__.H5EScreate, i32 noundef 85, i64 noundef %11, i64 noundef %12, ptr noundef nonnull @.str.1) #4
  br label %.thread20

14:                                               ; preds = %._crit_edge, %0
  %15 = phi i8 [ %.pre, %._crit_edge ], [ %4, %0 ]
  %16 = load i8, ptr @H5ES_init_g, align 1, !tbaa !3, !range !7, !noundef !8
  %17 = trunc nuw i8 %16 to i1
  %18 = trunc nuw i8 %15 to i1
  %19 = select i1 %17, i1 true, i1 %18
  br i1 %19, label %27, label %20, !prof !9

20:                                               ; preds = %14
  store i8 1, ptr @H5ES_init_g, align 1, !tbaa !3
  %21 = tail call i32 @H5ES__init_package() #4
  %22 = icmp slt i32 %21, 0
  br i1 %22, label %23, label %27, !prof !13

23:                                               ; preds = %20
  store i8 0, ptr @H5ES_init_g, align 1, !tbaa !3
  %24 = load i64, ptr @H5E_FUNC_g, align 8, !tbaa !11
  %25 = load i64, ptr @H5E_CANTINIT_g, align 8, !tbaa !11
  %26 = tail call i32 (ptr, ptr, i32, i64, i64, ptr, ...) @H5E_printf_stack(ptr noundef nonnull @.str, ptr noundef nonnull @__func__.H5EScreate, i32 noundef 85, i64 noundef %24, i64 noundef %25, ptr noundef nonnull @.str.2) #4
  br label %.thread20

27:                                               ; preds = %14, %20
  %28 = call i32 @H5CX_push(ptr noundef nonnull %1) #4
  %29 = icmp slt i32 %28, 0
  br i1 %29, label %30, label %34, !prof !10

30:                                               ; preds = %27
  %31 = load i64, ptr @H5E_FUNC_g, align 8, !tbaa !11
  %32 = load i64, ptr @H5E_CANTSET_g, align 8, !tbaa !11
  %33 = call i32 (ptr, ptr, i32, i64, i64, ptr, ...) @H5E_printf_stack(ptr noundef nonnull @.str, ptr noundef nonnull @__func__.H5EScreate, i32 noundef 85, i64 noundef %31, i64 noundef %32, ptr noundef nonnull @.str.3) #4
  br label %.thread20

34:                                               ; preds = %27
  %35 = call i32 @H5E_clear_stack() #4
  %36 = call noalias ptr @H5ES__create() #4
  %37 = icmp eq ptr %36, null
  br i1 %37, label %38, label %42, !prof !14

38:                                               ; preds = %34
  %39 = load i64, ptr @H5E_EVENTSET_g, align 8, !tbaa !11
  %40 = load i64, ptr @H5E_CANTCREATE_g, align 8, !tbaa !11
  %41 = call i32 (ptr, ptr, i32, i64, i64, ptr, ...) @H5E_printf_stack(ptr noundef nonnull @.str, ptr noundef nonnull @__func__.H5EScreate, i32 noundef 89, i64 noundef %39, i64 noundef %40, ptr noundef nonnull @.str.4) #4
  br label %.thread26

42:                                               ; preds = %34
  %43 = call i64 @H5I_register(i32 noundef 16, ptr noundef nonnull %36, i1 noundef zeroext true) #4
  %44 = icmp slt i64 %43, 0
  br i1 %44, label %45, label %50, !prof !14

45:                                               ; preds = %42
  %46 = load i64, ptr @H5E_EVENTSET_g, align 8, !tbaa !11
  %47 = load i64, ptr @H5E_CANTREGISTER_g, align 8, !tbaa !11
  %48 = call i32 (ptr, ptr, i32, i64, i64, ptr, ...) @H5E_printf_stack(ptr noundef nonnull @.str, ptr noundef nonnull @__func__.H5EScreate, i32 noundef 93, i64 noundef %46, i64 noundef %47, ptr noundef nonnull @.str.5) #4
  br label %.thread26

.thread26:                                        ; preds = %45, %38
  %49 = call i32 @H5CX_pop(i1 noundef zeroext true) #4
  br label %.thread20

50:                                               ; preds = %42
  %51 = call i32 @H5CX_pop(i1 noundef zeroext true) #4
  br label %53

.thread20:                                        ; preds = %30, %23, %10, %.thread26
  %52 = call i32 @H5E_dump_api_stack() #4
  br label %53

53:                                               ; preds = %50, %.thread20
  %.091523 = phi i64 [ -1, %.thread20 ], [ %43, %50 ]
  call void @llvm.lifetime.end.p0(i64 480, ptr nonnull %1) #4
  ret i64 %.091523
}